target datalayout = "e-m:e-p270:32:32-p271:32:32-p272:64:64-i64:64-i128:128-f80:128-n8:16:32:64-S128"
target triple = "x86_64-pc-linux-gnu"

; Function Attrs: inlinehint nounwind uwtable
define internal i64 @mi_bitmap_mask_(i64 noundef %0, i64 noundef %1) #0 {
  %3 = alloca i64, align 8
  %4 = alloca i64, align 8
  %5 = alloca i64, align 8
  store i64 %0, ptr %4, align 8, !tbaa !7
  store i64 %1, ptr %5, align 8, !tbaa !7
  %6 = load i64, ptr %4, align 8, !tbaa !7
  %7 = icmp uge i64 %6, 64
  br i1 %7, label %8, label %9

8:                                                ; preds = %2
  store i64 -1, ptr %3, align 8
  br label %19

9:                                                ; preds = %2
  %10 = load i64, ptr %4, align 8, !tbaa !7
  %11 = icmp eq i64 %10, 0
  br i1 %11, label %12, label %13

12:                                               ; preds = %9
  store i64 0, ptr %3, align 8
  br label %19

13:                                               ; preds = %9
  %14 = load i64, ptr %4, align 8, !tbaa !7
  %15 = shl i64 1, %14
  %16 = sub i64 %15, 1
  %17 = load i64, ptr %5, align 8, !tbaa !7
  %18 = shl i64 %16, %17
  store i64 %18, ptr %3, align 8
  br label %19

19:                                               ; preds = %13, %12, %8
  %20 = load i64, ptr %3, align 8
  ret i64 %20
}

; Function Attrs: inlinehint nounwind uwtable
define internal i64 @mi_bitmap_index_bit_in_field(i64 noundef %0) #0 {
  %2 = alloca i64, align 8
  store i64 %0, ptr %2, align 8, !tbaa !7
  %3 = load i64, ptr %2, align 8, !tbaa !7
  %4 = urem i64 %3, 64
  ret i64 %4
}

; Function Attrs: inlinehint nounwind uwtable
define internal i64 @mi_bitmap_index_field(i64 noundef %0) #0 {
  %2 = alloca i64, align 8
  store i64 %0, ptr %2, align 8, !tbaa !7
  %3 = load i64, ptr %2, align 8, !tbaa !7
  %4 = udiv i64 %3, 64
  ret i64 %4
}

; Function Attrs: nounwind uwtable
define hidden zeroext i1 @_mi_bitmap_unclaim(ptr noundef %0, i64 noundef %1, i64 noundef %2, i64 noundef %3) #2 {
  %5 = alloca ptr, align 8
  %6 = alloca i64, align 8
  %7 = alloca i64, align 8
  %8 = alloca i64, align 8
  %9 = alloca i64, align 8
  %10 = alloca i64, align 8
  %11 = alloca i64, align 8
  %12 = alloca i64, align 8
  %13 = alloca i64, align 8
  %14 = alloca i64, align 8
  store ptr %0, ptr %5, align 8, !tbaa !3
  store i64 %1, ptr %6, align 8, !tbaa !7
  store i64 %2, ptr %7, align 8, !tbaa !7
  store i64 %3, ptr %8, align 8, !tbaa !7
  call void @llvm.lifetime.start.p0(i64 8, ptr %9) #5
  %15 = load i64, ptr %8, align 8, !tbaa !7
  %16 = call i64 @mi_bitmap_index_field(i64 noundef %15) #6
  store i64 %16, ptr %9, align 8, !tbaa !7
  call void @llvm.lifetime.start.p0(i64 8, ptr %10) #5
  %17 = load i64, ptr %8, align 8, !tbaa !7
  %18 = call i64 @mi_bitmap_index_bit_in_field(i64 noundef %17) #6
  store i64 %18, ptr %10, align 8, !tbaa !7
  call void @llvm.lifetime.start.p0(i64 8, ptr %11) #5
  %19 = load i64, ptr %7, align 8, !tbaa !7
  %20 = load i64, ptr %10, align 8, !tbaa !7
  %21 = call i64 @mi_bitmap_mask_(i64 noundef %19, i64 noundef %20) #6
  store i64 %21, ptr %11, align 8, !tbaa !7
  call void @llvm.lifetime.start.p0(i64 8, ptr %12) #5
  %22 = load ptr, ptr %5, align 8, !tbaa !3
  %23 = load i64, ptr %9, align 8, !tbaa !7
  %24 = getelementptr inbounds nuw i64, ptr %22, i64 %23
  %25 = load i64, ptr %11, align 8, !tbaa !7
  %26 = xor i64 %25, -1
  store i64 %26, ptr %13, align 8, !tbaa !7
  %27 = load i64, ptr %13, align 8
  %28 = atomicrmw and ptr %24, i64 %27 acq_rel, align 8
  store i64 %28, ptr %14, align 8
  %29 = load i64, ptr %14, align 8, !tbaa !7
  store i64 %29, ptr %12, align 8, !tbaa !7
  %30 = load i64, ptr %12, align 8, !tbaa !7
  %31 = load i64, ptr %11, align 8, !tbaa !7
  %32 = and i64 %30, %31
  %33 = load i64, ptr %11, align 8, !tbaa !7
  %34 = icmp eq i64 %32, %33
  call void @llvm.lifetime.end.p0(i64 8, ptr %12) #5
  call void @llvm.lifetime.end.p0(i64 8, ptr %11) #5
  call void @llvm.lifetime.end.p0(i64 8, ptr %10) #5
  call void @llvm.lifetime.end.p0(i64 8, ptr %9) #5
  ret i1 %34
}