; Function Attrs: mustprogress nofree norecurse nounwind willreturn memory(argmem: readwrite) uwtable
define hidden zeroext i1 @_mi_bitmap_unclaim(ptr noundef captures(none) %0, i64 noundef %1, i64 noundef %2, i64 noundef %3) local_unnamed_addr #3 {
  %5 = and i64 %3, 63
  %6 = icmp ugt i64 %2, 63
  br i1 %6, label %mi_bitmap_mask_.exit, label %7

7:                                                ; preds = %4
  %8 = icmp eq i64 %2, 0
  br i1 %8, label %mi_bitmap_mask_.exit, label %9

9:                                                ; preds = %7
  %notmask.i = shl nsw i64 -1, %2
  %10 = xor i64 %notmask.i, -1
  %11 = shl i64 %10, %5
  br label %mi_bitmap_mask_.exit

mi_bitmap_mask_.exit:                             ; preds = %4, %7, %9
  %.0.i = phi i64 [ %11, %9 ], [ -1, %4 ], [ 0, %7 ]
  %12 = lshr i64 %3, 6
  %13 = getelementptr inbounds nuw i64, ptr %0, i64 %12
  %14 = xor i64 %.0.i, -1
  %15 = atomicrmw and ptr %13, i64 %14 acq_rel, align 8
  %16 = and i64 %15, %.0.i
  %17 = icmp eq i64 %16, %.0.i
  ret i1 %17
}